; Function Attrs: mustprogress uwtable
define dso_local void @_ZN3net19SourceAddressTokens8CopyFromERKS0_(ptr noundef nonnull align 8 dereferenceable(56) %this, ptr noundef nonnull align 8 dereferenceable(56) %from) local_unnamed_addr #1 align 2 {
entry:
  %cmp = icmp eq ptr %from, %this
  br i1 %cmp, label %return, label %if.end.i

if.end.i:                                         ; preds = %entry
  %vtable = load ptr, ptr %this, align 8
  %vfn = getelementptr inbounds i8, ptr %vtable, i64 56
  %0 = load ptr, ptr %vfn, align 8
  tail call void %0(ptr noundef nonnull align 8 dereferenceable(56) %this)
  %tokens_.i = getelementptr inbounds i8, ptr %this, i64 32
  %tokens_2.i = getelementptr inbounds i8, ptr %from, i64 32
  tail call void @_ZN6google8protobuf8internal20RepeatedPtrFieldBase9MergeFromINS0_16RepeatedPtrFieldIN3net18SourceAddressTokenEE11TypeHandlerEEEvRKS2_(ptr noundef nonnull align 8 dereferenceable(24) %tokens_.i, ptr noundef nonnull align 8 dereferenceable(24) %tokens_2.i)
  %_unknown_fields_.i.i = getelementptr inbounds i8, ptr %from, i64 8
  %1 = load ptr, ptr %_unknown_fields_.i.i, align 8
  %call3.i = tail call noundef zeroext i1 @_ZNKSt7__cxx1112basic_stringIcSt11char_traitsIcESaIcEE5emptyEv(ptr noundef nonnull align 8 dereferenceable(32) %1) #14
  br i1 %call3.i, label %return, label %if.then4.i

if.then4.i:                                       ; preds = %if.end.i
  %_unknown_fields_.i4.i = getelementptr inbounds i8, ptr %this, i64 8
  %2 = load ptr, ptr @_ZN6google8protobuf8internal13empty_string_B5cxx11E, align 8
  %call2.i.i = tail call noundef ptr @_ZN6google8protobuf8internal14ArenaStringPtr14MutableNoArenaEPKNSt7__cxx1112basic_stringIcSt11char_traitsIcESaIcEEE(ptr noundef nonnull align 8 dereferenceable(8) %_unknown_fields_.i4.i, ptr noundef nonnull %2)
  %3 = load ptr, ptr %_unknown_fields_.i.i, align 8
  %call7.i = tail call noundef nonnull align 8 dereferenceable(32) ptr @_ZNSt7__cxx1112basic_stringIcSt11char_traitsIcESaIcEE6appendERKS4_(ptr noundef nonnull align 8 dereferenceable(32) %call2.i.i, ptr noundef nonnull align 8 dereferenceable(32) %3)
  br label %return

return:                                           ; preds = %if.then4.i, %if.end.i, %entry
  ret void
}